target datalayout = "e-m:e-p270:32:32-p271:32:32-p272:64:64-i64:64-i128:128-f80:128-n8:16:32:64-S128"
target triple = "x86_64-pc-linux-gnu"

%struct._log_pages_t = type { i32, ptr }
%struct._log_page_parameters_t = type { i32, ptr, ptr }

@cdb_control_fields = hidden constant [6 x ptr] [ptr @hf_scsi_control_vendor_specific, ptr @hf_scsi_control_reserved, ptr @hf_scsi_control_naca, ptr @hf_scsi_control_obs1, ptr @hf_scsi_control_obs2, ptr null], align 16
@hf_scsi_alloclen16 = hidden global i32 0, align 4
@hf_scsi_control = hidden global i32 0, align 4
@ett_scsi_control = hidden global i32 0, align 4
@hf_scsi_log_ppc_flags = internal global i32 0, align 4
@ett_scsi_log_ppc = internal global i32 0, align 4
@hf_scsi_log_pc_flags = internal global i32 0, align 4
@ett_scsi_log_pc = internal global i32 0, align 4
@dissect_spc_logsense.ppcflags_fields = internal constant [3 x ptr] [ptr @hf_scsi_log_ppc, ptr @hf_scsi_log_sp, ptr null], align 16
@dissect_spc_logsense.pcflags_fields = internal constant [3 x ptr] [ptr @hf_scsi_log_pc, ptr @hf_scsi_log_pagecode, ptr null], align 16
@hf_scsi_log_parameter_ptr = internal global i32 0, align 4
@hf_scsi_log_page_length = internal global i32 0, align 4
@hf_scsi_log_parameter_code = internal global i32 0, align 4
@hf_scsi_log_param_flags = internal global i32 0, align 4
@hf_scsi_log_param_len = internal global i32 0, align 4
@hf_scsi_log_param_data = internal global i32 0, align 4
@ett_scsi_log = internal global i32 0, align 4
@ett_scsi_log_param = internal global i32 0, align 4
@dissect_scsi_log_page.pcflags_fields = internal constant [2 x ptr] [ptr @hf_scsi_log_pagecode, ptr null], align 16
@dissect_scsi_log_page.paramflags_fields = internal constant [8 x ptr] [ptr @hf_scsi_log_pf_du, ptr @hf_scsi_log_pf_ds, ptr @hf_scsi_log_pf_tsd, ptr @hf_scsi_log_pf_etc, ptr @hf_scsi_log_pf_tmc, ptr @hf_scsi_log_pf_lbin, ptr @hf_scsi_log_pf_lp, ptr null], align 16
@.str.1624 = private unnamed_addr constant [13 x i8] c"Log Page: %s\00", align 1
@.str.1625 = private unnamed_addr constant [17 x i8] c"Unknown (0x%04x)\00", align 1
@log_pages = internal constant [2 x %struct._log_pages_t] [%struct._log_pages_t { i32 46, ptr @tape_alert_log_parameters }, %struct._log_pages_t zeroinitializer], align 16

; Function Attrs: nounwind uwtable
define internal i32 @dissect_scsi_log_page(ptr noundef %0, ptr noundef %1, ptr noundef %2, i32 noundef %3) #0 {
  %5 = alloca ptr, align 8
  %6 = alloca ptr, align 8
  %7 = alloca ptr, align 8
  %8 = alloca i32, align 4
  %9 = alloca i16, align 2
  %10 = alloca i16, align 2
  %11 = alloca i8, align 1
  %12 = alloca ptr, align 8
  %13 = alloca ptr, align 8
  %14 = alloca i32, align 4
  %15 = alloca ptr, align 8
  %16 = alloca ptr, align 8
  %17 = alloca i16, align 2
  %18 = alloca ptr, align 8
  store ptr %0, ptr %5, align 8
  store ptr %1, ptr %6, align 8
  store ptr %2, ptr %7, align 8
  store i32 %3, ptr %8, align 4
  %19 = load i32, ptr %8, align 4
  store i32 %19, ptr %14, align 4
  %20 = load ptr, ptr %5, align 8
  %21 = load i32, ptr %8, align 4
  %22 = call zeroext i8 @tvb_get_guint8(ptr noundef %20, i32 noundef %21)
  %23 = zext i8 %22 to i32
  %24 = and i32 %23, 63
  %25 = trunc i32 %24 to i16
  store i16 %25, ptr %10, align 2
  %26 = load ptr, ptr %7, align 8
  %27 = load ptr, ptr %5, align 8
  %28 = load i32, ptr %8, align 4
  %29 = load i32, ptr @ett_scsi_log, align 4
  %30 = load i16, ptr %10, align 2
  %31 = zext i16 %30 to i32
  %32 = call ptr @val_to_str(i32 noundef %31, ptr noundef @scsi_log_page_val, ptr noundef @.str.1625)
  %33 = call ptr (ptr, ptr, i32, i32, i32, ptr, ptr, ...) @proto_tree_add_subtree_format(ptr noundef %26, ptr noundef %27, i32 noundef %28, i32 noundef -1, i32 noundef %29, ptr noundef %13, ptr noundef @.str.1624, ptr noundef %32)
  store ptr %33, ptr %12, align 8
  %34 = load ptr, ptr %12, align 8
  %35 = load ptr, ptr %5, align 8
  %36 = load i32, ptr %8, align 4
  %37 = load i32, ptr @hf_scsi_log_pc_flags, align 4
  %38 = load i32, ptr @ett_scsi_log_pc, align 4
  %39 = call ptr @proto_tree_add_bitmask(ptr noundef %34, ptr noundef %35, i32 noundef %36, i32 noundef %37, i32 noundef %38, ptr noundef @dissect_scsi_log_page.pcflags_fields, i32 noundef 0)
  %40 = load i32, ptr %8, align 4
  %41 = add i32 %40, 1
  store i32 %41, ptr %8, align 4
  %42 = load i32, ptr %8, align 4
  %43 = add i32 %42, 1
  store i32 %43, ptr %8, align 4
  %44 = load ptr, ptr %5, align 8
  %45 = load i32, ptr %8, align 4
  %46 = call zeroext i16 @tvb_get_ntohs(ptr noundef %44, i32 noundef %45)
  store i16 %46, ptr %9, align 2
  %47 = load ptr, ptr %12, align 8
  %48 = load i32, ptr @hf_scsi_log_page_length, align 4
  %49 = load ptr, ptr %5, align 8
  %50 = load i32, ptr %8, align 4
  %51 = call ptr @proto_tree_add_item(ptr noundef %47, i32 noundef %48, ptr noundef %49, i32 noundef %50, i32 noundef 2, i32 noundef 0)
  %52 = load i32, ptr %8, align 4
  %53 = add i32 %52, 2
  store i32 %53, ptr %8, align 4
  store ptr @log_pages, ptr %15, align 8
  br label %54

54:                                               ; preds = %72, %4
  %55 = load ptr, ptr %15, align 8
  %56 = icmp ne ptr %55, null
  br i1 %56, label %57, label %75

57:                                               ; preds = %54
  %58 = load ptr, ptr %15, align 8
  %59 = getelementptr inbounds %struct._log_pages_t, ptr %58, i32 0, i32 1
  %60 = load ptr, ptr %59, align 8
  %61 = icmp eq ptr %60, null
  br i1 %61, label %62, label %63

62:                                               ; preds = %57
  store ptr null, ptr %15, align 8
  br label %75

63:                                               ; preds = %57
  %64 = load ptr, ptr %15, align 8
  %65 = getelementptr inbounds %struct._log_pages_t, ptr %64, i32 0, i32 0
  %66 = load i32, ptr %65, align 8
  %67 = load i16, ptr %10, align 2
  %68 = zext i16 %67 to i32
  %69 = icmp eq i32 %66, %68
  br i1 %69, label %70, label %71

70:                                               ; preds = %63
  br label %75

71:                                               ; preds = %63
  br label %72

72:                                               ; preds = %71
  %73 = load ptr, ptr %15, align 8
  %74 = getelementptr %struct._log_pages_t, ptr %73, i32 1
  store ptr %74, ptr %15, align 8
  br label %54, !llvm.loop !11

75:                                               ; preds = %70, %62, %54
  br label %76

76:                                               ; preds = %192, %75
  %77 = load i32, ptr %8, align 4
  %78 = load i32, ptr %14, align 4
  %79 = add i32 %78, 4
  %80 = load i16, ptr %9, align 2
  %81 = zext i16 %80 to i32
  %82 = add i32 %79, %81
  %83 = icmp ult i32 %77, %82
  br i1 %83, label %84, label %193

84:                                               ; preds = %76
  store ptr null, ptr %16, align 8
  %85 = load ptr, ptr %5, align 8
  %86 = load i32, ptr %8, align 4
  %87 = call zeroext i16 @tvb_get_ntohs(ptr noundef %85, i32 noundef %86)
  store i16 %87, ptr %17, align 2
  %88 = load ptr, ptr %12, align 8
  %89 = load i32, ptr @hf_scsi_log_parameter_code, align 4
  %90 = load ptr, ptr %5, align 8
  %91 = load i32, ptr %8, align 4
  %92 = call ptr @proto_tree_add_item(ptr noundef %88, i32 noundef %89, ptr noundef %90, i32 noundef %91, i32 noundef 2, i32 noundef 0)
  %93 = load i32, ptr %8, align 4
  %94 = add i32 %93, 2
  store i32 %94, ptr %8, align 4
  %95 = load ptr, ptr %12, align 8
  %96 = load ptr, ptr %5, align 8
  %97 = load i32, ptr %8, align 4
  %98 = load i32, ptr @hf_scsi_log_param_flags, align 4
  %99 = load i32, ptr @ett_scsi_log_param, align 4
  %100 = call ptr @proto_tree_add_bitmask(ptr noundef %95, ptr noundef %96, i32 noundef %97, i32 noundef %98, i32 noundef %99, ptr noundef @dissect_scsi_log_page.paramflags_fields, i32 noundef 0)
  %101 = load i32, ptr %8, align 4
  %102 = add i32 %101, 1
  store i32 %102, ptr %8, align 4
  %103 = load ptr, ptr %5, align 8
  %104 = load i32, ptr %8, align 4
  %105 = call zeroext i8 @tvb_get_guint8(ptr noundef %103, i32 noundef %104)
  store i8 %105, ptr %11, align 1
  %106 = load ptr, ptr %12, align 8
  %107 = load i32, ptr @hf_scsi_log_param_len, align 4
  %108 = load ptr, ptr %5, align 8
  %109 = load i32, ptr %8, align 4
  %110 = call ptr @proto_tree_add_item(ptr noundef %106, i32 noundef %107, ptr noundef %108, i32 noundef %109, i32 noundef 1, i32 noundef 0)
  %111 = load i32, ptr %8, align 4
  %112 = add i32 %111, 1
  store i32 %112, ptr %8, align 4
  %113 = load ptr, ptr %15, align 8
  %114 = icmp ne ptr %113, null
  br i1 %114, label %115, label %141

115:                                              ; preds = %84
  %116 = load ptr, ptr %15, align 8
  %117 = getelementptr inbounds %struct._log_pages_t, ptr %116, i32 0, i32 1
  %118 = load ptr, ptr %117, align 8
  store ptr %118, ptr %16, align 8
  br label %119

119:                                              ; preds = %137, %115
  %120 = load ptr, ptr %16, align 8
  %121 = icmp ne ptr %120, null
  br i1 %121, label %122, label %140

122:                                              ; preds = %119
  %123 = load ptr, ptr %16, align 8
  %124 = getelementptr inbounds %struct._log_page_parameters_t, ptr %123, i32 0, i32 2
  %125 = load ptr, ptr %124, align 8
  %126 = icmp eq ptr %125, null
  br i1 %126, label %127, label %128

127:                                              ; preds = %122
  store ptr null, ptr %16, align 8
  br label %140

128:                                              ; preds = %122
  %129 = load ptr, ptr %16, align 8
  %130 = getelementptr inbounds %struct._log_page_parameters_t, ptr %129, i32 0, i32 0
  %131 = load i32, ptr %130, align 8
  %132 = load i16, ptr %17, align 2
  %133 = zext i16 %132 to i32
  %134 = icmp eq i32 %131, %133
  br i1 %134, label %135, label %136

135:                                              ; preds = %128
  br label %140

136:                                              ; preds = %128
  br label %137

137:                                              ; preds = %136
  %138 = load ptr, ptr %16, align 8
  %139 = getelementptr %struct._log_page_parameters_t, ptr %138, i32 1
  store ptr %139, ptr %16, align 8
  br label %119, !llvm.loop !12

140:                                              ; preds = %135, %127, %119
  br label %141

141:                                              ; preds = %140, %84
  %142 = load i8, ptr %11, align 1
  %143 = icmp ne i8 %142, 0
  br i1 %143, label %144, label %192

144:                                              ; preds = %141
  %145 = load ptr, ptr %16, align 8
  %146 = icmp ne ptr %145, null
  br i1 %146, label %147, label %179

147:                                              ; preds = %144
  %148 = load ptr, ptr %16, align 8
  %149 = getelementptr inbounds %struct._log_page_parameters_t, ptr %148, i32 0, i32 2
  %150 = load ptr, ptr %149, align 8
  %151 = icmp ne ptr %150, null
  br i1 %151, label %152, label %179

152:                                              ; preds = %147
  %153 = load ptr, ptr %5, align 8
  %154 = load i32, ptr %8, align 4
  %155 = load ptr, ptr %5, align 8
  %156 = load i32, ptr %8, align 4
  %157 = call i32 @tvb_reported_length_remaining(ptr noundef %155, i32 noundef %156)
  %158 = load i8, ptr %11, align 1
  %159 = zext i8 %158 to i32
  %160 = icmp slt i32 %157, %159
  br i1 %160, label %161, label %165

161:                                              ; preds = %152
  %162 = load ptr, ptr %5, align 8
  %163 = load i32, ptr %8, align 4
  %164 = call i32 @tvb_reported_length_remaining(ptr noundef %162, i32 noundef %163)
  br label %168

165:                                              ; preds = %152
  %166 = load i8, ptr %11, align 1
  %167 = zext i8 %166 to i32
  br label %168

168:                                              ; preds = %165, %161
  %169 = phi i32 [ %164, %161 ], [ %167, %165 ]
  %170 = load i8, ptr %11, align 1
  %171 = zext i8 %170 to i32
  %172 = call ptr @tvb_new_subset_length_caplen(ptr noundef %153, i32 noundef %154, i32 noundef %169, i32 noundef %171)
  store ptr %172, ptr %18, align 8
  %173 = load ptr, ptr %16, align 8
  %174 = getelementptr inbounds %struct._log_page_parameters_t, ptr %173, i32 0, i32 2
  %175 = load ptr, ptr %174, align 8
  %176 = load ptr, ptr %18, align 8
  %177 = load ptr, ptr %6, align 8
  %178 = load ptr, ptr %12, align 8
  call void %175(ptr noundef %176, ptr noundef %177, ptr noundef %178)
  br label %187

179:                                              ; preds = %147, %144
  %180 = load ptr, ptr %12, align 8
  %181 = load i32, ptr @hf_scsi_log_param_data, align 4
  %182 = load ptr, ptr %5, align 8
  %183 = load i32, ptr %8, align 4
  %184 = load i8, ptr %11, align 1
  %185 = zext i8 %184 to i32
  %186 = call ptr @proto_tree_add_item(ptr noundef %180, i32 noundef %181, ptr noundef %182, i32 noundef %183, i32 noundef %185, i32 noundef 0)
  br label %187

187:                                              ; preds = %179, %168
  %188 = load i8, ptr %11, align 1
  %189 = zext i8 %188 to i32
  %190 = load i32, ptr %8, align 4
  %191 = add i32 %190, %189
  store i32 %191, ptr %8, align 4
  br label %192

192:                                              ; preds = %187, %141
  br label %76, !llvm.loop !13

193:                                              ; preds = %76
  %194 = load ptr, ptr %13, align 8
  %195 = load i32, ptr %8, align 4
  %196 = load i32, ptr %14, align 4
  %197 = sub i32 %195, %196
  call void @proto_item_set_len(ptr noundef %194, i32 noundef %197)
  %198 = load i32, ptr %8, align 4
  ret i32 %198
}

; Function Attrs: nounwind uwtable
define hidden void @dissect_spc_logsense(ptr noundef %0, ptr noundef %1, ptr noundef %2, i32 noundef %3, i32 noundef %4, i32 noundef %5, i32 noundef %6, ptr noundef %7) #0 {
  %9 = alloca ptr, align 8
  %10 = alloca ptr, align 8
  %11 = alloca ptr, align 8
  %12 = alloca i32, align 4
  %13 = alloca i32, align 4
  %14 = alloca i32, align 4
  %15 = alloca i32, align 4
  %16 = alloca ptr, align 8
  store ptr %0, ptr %9, align 8
  store ptr %1, ptr %10, align 8
  store ptr %2, ptr %11, align 8
  store i32 %3, ptr %12, align 4
  store i32 %4, ptr %13, align 4
  store i32 %5, ptr %14, align 4
  store i32 %6, ptr %15, align 4
  store ptr %7, ptr %16, align 8
  %17 = load ptr, ptr %11, align 8
  %18 = icmp ne ptr %17, null
  br i1 %18, label %20, label %19

19:                                               ; preds = %8
  br label %73

20:                                               ; preds = %8
  %21 = load i32, ptr %13, align 4
  %22 = icmp ne i32 %21, 0
  br i1 %22, label %23, label %59

23:                                               ; preds = %20
  %24 = load i32, ptr %14, align 4
  %25 = icmp ne i32 %24, 0
  br i1 %25, label %26, label %59

26:                                               ; preds = %23
  %27 = load ptr, ptr %11, align 8
  %28 = load ptr, ptr %9, align 8
  %29 = load i32, ptr %12, align 4
  %30 = load i32, ptr @hf_scsi_log_ppc_flags, align 4
  %31 = load i32, ptr @ett_scsi_log_ppc, align 4
  %32 = call ptr @proto_tree_add_bitmask(ptr noundef %27, ptr noundef %28, i32 noundef %29, i32 noundef %30, i32 noundef %31, ptr noundef @dissect_spc_logsense.ppcflags_fields, i32 noundef 0)
  %33 = load ptr, ptr %11, align 8
  %34 = load ptr, ptr %9, align 8
  %35 = load i32, ptr %12, align 4
  %36 = add i32 %35, 1
  %37 = load i32, ptr @hf_scsi_log_pc_flags, align 4
  %38 = load i32, ptr @ett_scsi_log_pc, align 4
  %39 = call ptr @proto_tree_add_bitmask(ptr noundef %33, ptr noundef %34, i32 noundef %36, i32 noundef %37, i32 noundef %38, ptr noundef @dissect_spc_logsense.pcflags_fields, i32 noundef 0)
  %40 = load ptr, ptr %11, align 8
  %41 = load i32, ptr @hf_scsi_log_parameter_ptr, align 4
  %42 = load ptr, ptr %9, align 8
  %43 = load i32, ptr %12, align 4
  %44 = add i32 %43, 4
  %45 = call ptr @proto_tree_add_item(ptr noundef %40, i32 noundef %41, ptr noundef %42, i32 noundef %44, i32 noundef 2, i32 noundef 0)
  %46 = load ptr, ptr %11, align 8
  %47 = load i32, ptr @hf_scsi_alloclen16, align 4
  %48 = load ptr, ptr %9, align 8
  %49 = load i32, ptr %12, align 4
  %50 = add i32 %49, 6
  %51 = call ptr @proto_tree_add_item(ptr noundef %46, i32 noundef %47, ptr noundef %48, i32 noundef %50, i32 noundef 2, i32 noundef 0)
  %52 = load ptr, ptr %11, align 8
  %53 = load ptr, ptr %9, align 8
  %54 = load i32, ptr %12, align 4
  %55 = add i32 %54, 8
  %56 = load i32, ptr @hf_scsi_control, align 4
  %57 = load i32, ptr @ett_scsi_control, align 4
  %58 = call ptr @proto_tree_add_bitmask(ptr noundef %52, ptr noundef %53, i32 noundef %55, i32 noundef %56, i32 noundef %57, ptr noundef @cdb_control_fields, i32 noundef 0)
  br label %73

59:                                               ; preds = %23, %20
  %60 = load i32, ptr %13, align 4
  %61 = icmp ne i32 %60, 0
  br i1 %61, label %72, label %62

62:                                               ; preds = %59
  %63 = load ptr, ptr %16, align 8
  %64 = icmp ne ptr %63, null
  br i1 %64, label %66, label %65

65:                                               ; preds = %62
  br label %73

66:                                               ; preds = %62
  %67 = load ptr, ptr %9, align 8
  %68 = load ptr, ptr %10, align 8
  %69 = load ptr, ptr %11, align 8
  %70 = load i32, ptr %12, align 4
  %71 = call i32 @dissect_scsi_log_page(ptr noundef %67, ptr noundef %68, ptr noundef %69, i32 noundef %70)
  br label %72

72:                                               ; preds = %66, %59
  br label %73

73:                                               ; preds = %72, %65, %26, %19
  ret void
}