; Function Attrs: nounwind uwtable
define hidden void @dissect_spc_logsense(ptr noundef %0, ptr noundef %1, ptr noundef %2, i32 noundef %3, i32 noundef %4, i32 noundef %5, i32 %6, ptr noundef readnone %7) #0 {
  %9 = alloca ptr, align 8
  %.not = icmp eq ptr %2, null
  br i1 %.not, label %101, label %10

10:                                               ; preds = %8
  %11 = icmp ne i32 %4, 0
  %12 = icmp ne i32 %5, 0
  %or.cond = and i1 %11, %12
  br i1 %or.cond, label %13, label %31

13:                                               ; preds = %10
  %14 = load i32, ptr @hf_scsi_log_ppc_flags, align 4
  %15 = load i32, ptr @ett_scsi_log_ppc, align 4
  %16 = tail call ptr @proto_tree_add_bitmask(ptr noundef nonnull %2, ptr noundef %0, i32 noundef %3, i32 noundef %14, i32 noundef %15, ptr noundef nonnull @dissect_spc_logsense.ppcflags_fields, i32 noundef 0) #10
  %17 = add i32 %3, 1
  %18 = load i32, ptr @hf_scsi_log_pc_flags, align 4
  %19 = load i32, ptr @ett_scsi_log_pc, align 4
  %20 = tail call ptr @proto_tree_add_bitmask(ptr noundef nonnull %2, ptr noundef %0, i32 noundef %17, i32 noundef %18, i32 noundef %19, ptr noundef nonnull @dissect_spc_logsense.pcflags_fields, i32 noundef 0) #10
  %21 = load i32, ptr @hf_scsi_log_parameter_ptr, align 4
  %22 = add i32 %3, 4
  %23 = tail call ptr @proto_tree_add_item(ptr noundef nonnull %2, i32 noundef %21, ptr noundef %0, i32 noundef %22, i32 noundef 2, i32 noundef 0) #10
  %24 = load i32, ptr @hf_scsi_alloclen16, align 4
  %25 = add i32 %3, 6
  %26 = tail call ptr @proto_tree_add_item(ptr noundef nonnull %2, i32 noundef %24, ptr noundef %0, i32 noundef %25, i32 noundef 2, i32 noundef 0) #10
  %27 = add i32 %3, 8
  %28 = load i32, ptr @hf_scsi_control, align 4
  %29 = load i32, ptr @ett_scsi_control, align 4
  %30 = tail call ptr @proto_tree_add_bitmask(ptr noundef nonnull %2, ptr noundef %0, i32 noundef %27, i32 noundef %28, i32 noundef %29, ptr noundef nonnull @cdb_control_fields, i32 noundef 0) #10
  br label %101

31:                                               ; preds = %10
  %32 = icmp eq i32 %4, 0
  %33 = icmp ne ptr %7, null
  %or.cond3 = and i1 %32, %33
  br i1 %or.cond3, label %split.i, label %101

split.i:                                          ; preds = %31
  call void @llvm.lifetime.start.p0(i64 8, ptr nonnull %9)
  %34 = tail call zeroext i8 @tvb_get_guint8(ptr noundef %0, i32 noundef %3) #10
  %35 = and i8 %34, 63
  %36 = load i32, ptr @ett_scsi_log, align 4
  %37 = zext nneg i8 %35 to i32
  %38 = tail call ptr @val_to_str(i32 noundef %37, ptr noundef nonnull @scsi_log_page_val, ptr noundef nonnull @.str.1625) #10
  %39 = call ptr (ptr, ptr, i32, i32, i32, ptr, ptr, ...) @proto_tree_add_subtree_format(ptr noundef nonnull %2, ptr noundef %0, i32 noundef %3, i32 noundef -1, i32 noundef %36, ptr noundef nonnull %9, ptr noundef nonnull @.str.1624, ptr noundef %38) #10
  %40 = load i32, ptr @hf_scsi_log_pc_flags, align 4
  %41 = load i32, ptr @ett_scsi_log_pc, align 4
  %42 = call ptr @proto_tree_add_bitmask(ptr noundef %39, ptr noundef %0, i32 noundef %3, i32 noundef %40, i32 noundef %41, ptr noundef nonnull @dissect_scsi_log_page.pcflags_fields, i32 noundef 0) #10
  %43 = add i32 %3, 2
  %44 = call zeroext i16 @tvb_get_ntohs(ptr noundef %0, i32 noundef %43) #10
  %45 = load i32, ptr @hf_scsi_log_page_length, align 4
  %46 = call ptr @proto_tree_add_item(ptr noundef %39, i32 noundef %45, ptr noundef %0, i32 noundef %43, i32 noundef 2, i32 noundef 0) #10
  %47 = add i32 %3, 4
  %.not27 = icmp eq i8 %35, 46
  %48 = zext i16 %44 to i32
  %49 = add i32 %47, %48
  %50 = icmp ult i32 %47, %49
  br i1 %50, label %.lr.ph92.i, label %dissect_scsi_log_page.exit

.lr.ph92.i:                                       ; preds = %split.i
  %51 = select i1 %.not27, ptr getelementptr inbounds nuw (i8, ptr @log_pages, i64 8), ptr inttoptr (i64 8 to ptr)
  br label %52

52:                                               ; preds = %97, %.lr.ph92.i
  %.091.i = phi i32 [ %47, %.lr.ph92.i ], [ %.1.i, %97 ]
  %53 = call zeroext i16 @tvb_get_ntohs(ptr noundef %0, i32 noundef %.091.i) #10
  %54 = load i32, ptr @hf_scsi_log_parameter_code, align 4
  %55 = call ptr @proto_tree_add_item(ptr noundef %39, i32 noundef %54, ptr noundef %0, i32 noundef %.091.i, i32 noundef 2, i32 noundef 0) #10
  %56 = add i32 %.091.i, 2
  %57 = load i32, ptr @hf_scsi_log_param_flags, align 4
  %58 = load i32, ptr @ett_scsi_log_param, align 4
  %59 = call ptr @proto_tree_add_bitmask(ptr noundef %39, ptr noundef %0, i32 noundef %56, i32 noundef %57, i32 noundef %58, ptr noundef nonnull @dissect_scsi_log_page.paramflags_fields, i32 noundef 0) #10
  %60 = add i32 %.091.i, 3
  %61 = call zeroext i8 @tvb_get_guint8(ptr noundef %0, i32 noundef %60) #10
  %62 = load i32, ptr @hf_scsi_log_param_len, align 4
  %63 = call ptr @proto_tree_add_item(ptr noundef %39, i32 noundef %62, ptr noundef %0, i32 noundef %60, i32 noundef 1, i32 noundef 0) #10
  %64 = add i32 %.091.i, 4
  br i1 %.not27, label %65, label %.loopexit.i

65:                                               ; preds = %52
  %66 = load ptr, ptr %51, align 8
  %.not8085.i = icmp eq ptr %66, null
  br i1 %.not8085.i, label %.loopexit.i, label %.lr.ph.i

.lr.ph.i:                                         ; preds = %65
  %67 = zext i16 %53 to i32
  br label %68

68:                                               ; preds = %75, %.lr.ph.i
  %.17686.i = phi ptr [ %66, %.lr.ph.i ], [ %76, %75 ]
  %69 = getelementptr inbounds nuw i8, ptr %.17686.i, i64 16
  %70 = load ptr, ptr %69, align 8
  %71 = icmp eq ptr %70, null
  br i1 %71, label %.loopexit.i, label %72

72:                                               ; preds = %68
  %73 = load i32, ptr %.17686.i, align 8
  %74 = icmp eq i32 %73, %67
  br i1 %74, label %.loopexit.i, label %75

75:                                               ; preds = %72
  %76 = getelementptr i8, ptr %.17686.i, i64 24
  %.not80.i = icmp eq ptr %76, null
  br i1 %.not80.i, label %.loopexit.i, label %68, !llvm.loop !11

.loopexit.i:                                      ; preds = %75, %72, %68, %65, %52
  %.075.i = phi ptr [ null, %52 ], [ null, %65 ], [ null, %68 ], [ null, %75 ], [ %.17686.i, %72 ]
  %.not81.i = icmp eq i8 %61, 0
  br i1 %.not81.i, label %97, label %77

77:                                               ; preds = %.loopexit.i
  %.not82.i = icmp eq ptr %.075.i, null
  br i1 %.not82.i, label %91, label %78

78:                                               ; preds = %77
  %79 = getelementptr inbounds nuw i8, ptr %.075.i, i64 16
  %80 = load ptr, ptr %79, align 8
  %.not83.i = icmp eq ptr %80, null
  br i1 %.not83.i, label %91, label %81

81:                                               ; preds = %78
  %82 = call i32 @tvb_reported_length_remaining(ptr noundef %0, i32 noundef %64) #10
  %83 = zext i8 %61 to i32
  %84 = icmp slt i32 %82, %83
  br i1 %84, label %85, label %87

85:                                               ; preds = %81
  %86 = call i32 @tvb_reported_length_remaining(ptr noundef %0, i32 noundef %64) #10
  br label %87

87:                                               ; preds = %85, %81
  %88 = phi i32 [ %86, %85 ], [ %83, %81 ]
  %89 = call ptr @tvb_new_subset_length_caplen(ptr noundef %0, i32 noundef %64, i32 noundef %88, i32 noundef %83) #10
  %90 = load ptr, ptr %79, align 8
  call void %90(ptr noundef %89, ptr noundef %1, ptr noundef %39) #10
  br label %95

91:                                               ; preds = %78, %77
  %92 = load i32, ptr @hf_scsi_log_param_data, align 4
  %93 = zext i8 %61 to i32
  %94 = call ptr @proto_tree_add_item(ptr noundef %39, i32 noundef %92, ptr noundef %0, i32 noundef %64, i32 noundef %93, i32 noundef 0) #10
  br label %95

95:                                               ; preds = %91, %87
  %.pre-phi.i = phi i32 [ %93, %91 ], [ %83, %87 ]
  %96 = add i32 %.pre-phi.i, %64
  br label %97

97:                                               ; preds = %95, %.loopexit.i
  %.1.i = phi i32 [ %96, %95 ], [ %64, %.loopexit.i ]
  %98 = icmp ult i32 %.1.i, %49
  br i1 %98, label %52, label %dissect_scsi_log_page.exit, !llvm.loop !12

dissect_scsi_log_page.exit:                       ; preds = %97, %split.i
  %.0.lcssa.i = phi i32 [ %47, %split.i ], [ %.1.i, %97 ]
  %99 = load ptr, ptr %9, align 8
  %100 = sub i32 %.0.lcssa.i, %3
  call void @proto_item_set_len(ptr noundef %99, i32 noundef %100) #10
  call void @llvm.lifetime.end.p0(i64 8, ptr nonnull %9)
  br label %101

101:                                              ; preds = %31, %dissect_scsi_log_page.exit, %8, %13
  ret void
}